; ModuleID = '54/1064.c'
source_filename = "54/1064.c"
target datalayout = "e-m:e-p270:32:32-p271:32:32-p272:64:64-i64:64-f80:128-n8:16:32:64-S128"
target triple = "x86_64-pc-linux-gnu"

@.str = private unnamed_addr constant [6 x i8] c"%d %d\00", align 1
@.str.1 = private unnamed_addr constant [4 x i8] c"%d\0A\00", align 1

; Function Attrs: noinline nounwind uwtable
define dso_local i32 @main() #0 {
  %1 = alloca i32, align 4
  %2 = alloca i32, align 4
  %3 = alloca i32, align 4
  %4 = alloca i32, align 4
  store i32 0, i32* %1, align 4
  %5 = call i32 (i8*, ...) @__isoc99_scanf(i8* getelementptr inbounds ([6 x i8], [6 x i8]* @.str, i64 0, i64 0), i32* %2, i32* %3)
  %6 = load i32, i32* %2, align 4
  %7 = load i32, i32* %3, align 4
  %8 = call i32 @cal(i32 %6, i32 %7)
  store i32 %8, i32* %4, align 4
  %9 = load i32, i32* %4, align 4
  %10 = call i32 (i8*, ...) @printf(i8* getelementptr inbounds ([4 x i8], [4 x i8]* @.str.1, i64 0, i64 0), i32 %9)
  ret i32 0
}

declare dso_local i32 @__isoc99_scanf(i8*, ...) #1

; Function Attrs: noinline nounwind uwtable
define dso_local i32 @cal(i32 %0, i32 %1) #0 {
  %3 = alloca i32, align 4
  %4 = alloca i32, align 4
  %5 = alloca i32, align 4
  %6 = alloca i32, align 4
  %7 = alloca i32, align 4
  %8 = alloca i32, align 4
  %9 = alloca [10000 x i32], align 16
  store i32 %0, i32* %3, align 4
  store i32 %1, i32* %4, align 4
  store i32 0, i32* %5, align 4
  br label %10

10:                                               ; preds = %17, %2
  %11 = load i32, i32* %5, align 4
  %12 = icmp slt i32 %11, 10000
  br i1 %12, label %13, label %20

13:                                               ; preds = %10
  %14 = load i32, i32* %5, align 4
  %15 = sext i32 %14 to i64
  %16 = getelementptr inbounds [10000 x i32], [10000 x i32]* %9, i64 0, i64 %15
  store i32 0, i32* %16, align 4
  br label %17

17:                                               ; preds = %13
  %18 = load i32, i32* %5, align 4
  %19 = add nsw i32 %18, 1
  store i32 %19, i32* %5, align 4
  br label %10

20:                                               ; preds = %10
  store i32 1, i32* %8, align 4
  br label %21

21:                                               ; preds = %82, %20
  %22 = load i32, i32* %8, align 4
  %23 = icmp sge i32 %22, 1
  br i1 %23, label %24, label %83

24:                                               ; preds = %21
  %25 = load i32, i32* %8, align 4
  store i32 %25, i32* %7, align 4
  %26 = load i32, i32* %7, align 4
  %27 = load i32, i32* %3, align 4
  %28 = mul nsw i32 %26, %27
  %29 = load i32, i32* %4, align 4
  %30 = add nsw i32 %28, %29
  store i32 %30, i32* %7, align 4
  store i32 2, i32* %5, align 4
  br label %31

31:                                               ; preds = %69, %24
  %32 = load i32, i32* %5, align 4
  %33 = load i32, i32* %3, align 4
  %34 = icmp sle i32 %32, %33
  br i1 %34, label %35, label %72

35:                                               ; preds = %31
  %36 = load i32, i32* %7, align 4
  %37 = load i32, i32* %3, align 4
  %38 = mul nsw i32 %36, %37
  %39 = load i32, i32* %3, align 4
  %40 = sub nsw i32 %39, 1
  %41 = sdiv i32 %38, %40
  %42 = load i32, i32* %4, align 4
  %43 = add nsw i32 %41, %42
  store i32 %43, i32* %7, align 4
  %44 = load i32, i32* %7, align 4
  %45 = load i32, i32* %5, align 4
  %46 = sext i32 %45 to i64
  %47 = getelementptr inbounds [10000 x i32], [10000 x i32]* %9, i64 0, i64 %46
  store i32 %44, i32* %47, align 4
  %48 = load i32, i32* %7, align 4
  %49 = load i32, i32* %3, align 4
  %50 = srem i32 %48, %49
  %51 = load i32, i32* %4, align 4
  %52 = icmp ne i32 %50, %51
  br i1 %52, label %53, label %68

53:                                               ; preds = %35
  %54 = load i32, i32* %8, align 4
  %55 = add nsw i32 %54, 1
  store i32 %55, i32* %8, align 4
  store i32 0, i32* %6, align 4
  br label %56

56:                                               ; preds = %64, %53
  %57 = load i32, i32* %6, align 4
  %58 = load i32, i32* %3, align 4
  %59 = icmp sle i32 %57, %58
  br i1 %59, label %60, label %67

60:                                               ; preds = %56
  %61 = load i32, i32* %6, align 4
  %62 = sext i32 %61 to i64
  %63 = getelementptr inbounds [10000 x i32], [10000 x i32]* %9, i64 0, i64 %62
  store i32 0, i32* %63, align 4
  br label %64

64:                                               ; preds = %60
  %65 = load i32, i32* %6, align 4
  %66 = add nsw i32 %65, 1
  store i32 %66, i32* %6, align 4
  br label %56

67:                                               ; preds = %56
  br label %72

68:                                               ; preds = %35
  br label %69

69:                                               ; preds = %68
  %70 = load i32, i32* %5, align 4
  %71 = add nsw i32 %70, 1
  store i32 %71, i32* %5, align 4
  br label %31

72:                                               ; preds = %67, %31
  %73 = load i32, i32* %3, align 4
  %74 = sext i32 %73 to i64
  %75 = getelementptr inbounds [10000 x i32], [10000 x i32]* %9, i64 0, i64 %74
  %76 = load i32, i32* %75, align 4
  %77 = load i32, i32* %3, align 4
  %78 = srem i32 %76, %77
  %79 = load i32, i32* %4, align 4
  %80 = icmp eq i32 %78, %79
  br i1 %80, label %81, label %82

81:                                               ; preds = %72
  br label %83

82:                                               ; preds = %72
  br label %21

83:                                               ; preds = %81, %21
  %84 = load i32, i32* %7, align 4
  ret i32 %84
}

declare dso_local i32 @printf(i8*, ...) #1


!llvm.module.flags = !{!0}
!llvm.ident = !{!1}

!0 = !{i32 1, !"wchar_size", i32 4}
!1 = !{!"clang version 10.0.0-4ubuntu1 "}
